
key_led_elf:     file format elf32-littlearm

Disassembly of section .text:

00000000 <_start>:
   0:	e59f0010 	ldr	r0, [pc, #16]	; 18 <.text+0x18>
   4:	e3a01000 	mov	r1, #0	; 0x0
   8:	e5801000 	str	r1, [r0]
   c:	e3a0da01 	mov	sp, #4096	; 0x1000
  10:	eb000001 	bl	1c <main>

00000014 <halt_loop>:
  14:	eafffffe 	b	14 <halt_loop>
  18:	56000010 	undefined

0000001c <main>:
  1c:	e1a0c00d 	mov	ip, sp
  20:	e92dd800 	stmdb	sp!, {fp, ip, lr, pc}
  24:	e24cb004 	sub	fp, ip, #4	; 0x4
  28:	e24dd004 	sub	sp, sp, #4	; 0x4
  2c:	e3a03456 	mov	r3, #1442840576	; 0x56000000
  30:	e2833010 	add	r3, r3, #16	; 0x10
  34:	e3a02b55 	mov	r2, #87040	; 0x15400
  38:	e5832000 	str	r2, [r3]
  3c:	e3a02456 	mov	r2, #1442840576	; 0x56000000
  40:	e2822060 	add	r2, r2, #96	; 0x60
  44:	e3a03cff 	mov	r3, #65280	; 0xff00
  48:	e283303f 	add	r3, r3, #63	; 0x3f
  4c:	e1833803 	orr	r3, r3, r3, lsl #16
  50:	e5823000 	str	r3, [r2]
  54:	e3a03456 	mov	r3, #1442840576	; 0x56000000
  58:	e2833050 	add	r3, r3, #80	; 0x50
  5c:	e3e02033 	mvn	r2, #51	; 0x33
  60:	e5832000 	str	r2, [r3]
  64:	e3a03456 	mov	r3, #1442840576	; 0x56000000
  68:	e2833064 	add	r3, r3, #100	; 0x64
  6c:	e5933000 	ldr	r3, [r3]
  70:	e50b3010 	str	r3, [fp, #-16]
  74:	e51b3010 	ldr	r3, [fp, #-16]
  78:	e2033b02 	and	r3, r3, #2048	; 0x800
  7c:	e3530000 	cmp	r3, #0	; 0x0
  80:	0a000007 	beq	a4 <main+0x88>
  84:	e3a02456 	mov	r2, #1442840576	; 0x56000000
  88:	e2822014 	add	r2, r2, #20	; 0x14
  8c:	e3a03456 	mov	r3, #1442840576	; 0x56000000
  90:	e2833014 	add	r3, r3, #20	; 0x14
  94:	e5933000 	ldr	r3, [r3]
  98:	e3833020 	orr	r3, r3, #32	; 0x20
  9c:	e5823000 	str	r3, [r2]
  a0:	ea000006 	b	c0 <main+0xa4>
  a4:	e3a02456 	mov	r2, #1442840576	; 0x56000000
  a8:	e2822014 	add	r2, r2, #20	; 0x14
  ac:	e3a03456 	mov	r3, #1442840576	; 0x56000000
  b0:	e2833014 	add	r3, r3, #20	; 0x14
  b4:	e5933000 	ldr	r3, [r3]
  b8:	e3c33020 	bic	r3, r3, #32	; 0x20
  bc:	e5823000 	str	r3, [r2]
  c0:	e51b3010 	ldr	r3, [fp, #-16]
  c4:	e2033008 	and	r3, r3, #8	; 0x8
  c8:	e3530000 	cmp	r3, #0	; 0x0
  cc:	0a000007 	beq	f0 <main+0xd4>
  d0:	e3a02456 	mov	r2, #1442840576	; 0x56000000
  d4:	e2822014 	add	r2, r2, #20	; 0x14
  d8:	e3a03456 	mov	r3, #1442840576	; 0x56000000
  dc:	e2833014 	add	r3, r3, #20	; 0x14
  e0:	e5933000 	ldr	r3, [r3]
  e4:	e3833040 	orr	r3, r3, #64	; 0x40
  e8:	e5823000 	str	r3, [r2]
  ec:	ea000006 	b	10c <main+0xf0>
  f0:	e3a02456 	mov	r2, #1442840576	; 0x56000000
  f4:	e2822014 	add	r2, r2, #20	; 0x14
  f8:	e3a03456 	mov	r3, #1442840576	; 0x56000000
  fc:	e2833014 	add	r3, r3, #20	; 0x14
 100:	e5933000 	ldr	r3, [r3]
 104:	e3c33040 	bic	r3, r3, #64	; 0x40
 108:	e5823000 	str	r3, [r2]
 10c:	e3a03456 	mov	r3, #1442840576	; 0x56000000
 110:	e2833054 	add	r3, r3, #84	; 0x54
 114:	e5933000 	ldr	r3, [r3]
 118:	e50b3010 	str	r3, [fp, #-16]
 11c:	e51b3010 	ldr	r3, [fp, #-16]
 120:	e2033004 	and	r3, r3, #4	; 0x4
 124:	e3530000 	cmp	r3, #0	; 0x0
 128:	0a000007 	beq	14c <main+0x130>
 12c:	e3a02456 	mov	r2, #1442840576	; 0x56000000
 130:	e2822014 	add	r2, r2, #20	; 0x14
 134:	e3a03456 	mov	r3, #1442840576	; 0x56000000
 138:	e2833014 	add	r3, r3, #20	; 0x14
 13c:	e5933000 	ldr	r3, [r3]
 140:	e3833080 	orr	r3, r3, #128	; 0x80
 144:	e5823000 	str	r3, [r2]
 148:	ea000006 	b	168 <main+0x14c>
 14c:	e3a02456 	mov	r2, #1442840576	; 0x56000000
 150:	e2822014 	add	r2, r2, #20	; 0x14
 154:	e3a03456 	mov	r3, #1442840576	; 0x56000000
 158:	e2833014 	add	r3, r3, #20	; 0x14
 15c:	e5933000 	ldr	r3, [r3]
 160:	e3c33080 	bic	r3, r3, #128	; 0x80
 164:	e5823000 	str	r3, [r2]
 168:	e51b3010 	ldr	r3, [fp, #-16]
 16c:	e2033001 	and	r3, r3, #1	; 0x1
 170:	e3530000 	cmp	r3, #0	; 0x0
 174:	0a000007 	beq	198 <main+0x17c>
 178:	e3a02456 	mov	r2, #1442840576	; 0x56000000
 17c:	e2822014 	add	r2, r2, #20	; 0x14
 180:	e3a03456 	mov	r3, #1442840576	; 0x56000000
 184:	e2833014 	add	r3, r3, #20	; 0x14
 188:	e5933000 	ldr	r3, [r3]
 18c:	e3833c01 	orr	r3, r3, #256	; 0x100
 190:	e5823000 	str	r3, [r2]
 194:	eaffffb2 	b	64 <main+0x48>
 198:	e3a02456 	mov	r2, #1442840576	; 0x56000000
 19c:	e2822014 	add	r2, r2, #20	; 0x14
 1a0:	e3a03456 	mov	r3, #1442840576	; 0x56000000
 1a4:	e2833014 	add	r3, r3, #20	; 0x14
 1a8:	e5933000 	ldr	r3, [r3]
 1ac:	e3c33c01 	bic	r3, r3, #256	; 0x100
 1b0:	e5823000 	str	r3, [r2]
 1b4:	eaffffaa 	b	64 <main+0x48>